; ModuleID = '20/116.c'
source_filename = "20/116.c"
target datalayout = "e-m:e-p270:32:32-p271:32:32-p272:64:64-i64:64-f80:128-n8:16:32:64-S128"
target triple = "x86_64-pc-linux-gnu"

@.str = private unnamed_addr constant [3 x i8] c"%c\00", align 1
@.str.1 = private unnamed_addr constant [2 x i8] c"\0A\00", align 1

; Function Attrs: noinline nounwind uwtable
define dso_local void @main() #0 {
  %1 = alloca i32, align 4
  %2 = alloca [100 x i32], align 16
  %3 = alloca i32, align 4
  %4 = alloca [100 x i32], align 16
  %5 = alloca [100 x [50 x i8]], align 16
  %6 = alloca i8, align 1
  store i32 0, i32* %1, align 4
  br label %7

7:                                                ; preds = %24, %0
  %8 = load i32, i32* %1, align 4
  %9 = sext i32 %8 to i64
  %10 = getelementptr inbounds [100 x [50 x i8]], [100 x [50 x i8]]* %5, i64 0, i64 %9
  %11 = getelementptr inbounds [50 x i8], [50 x i8]* %10, i64 0, i64 0
  %12 = call i32 (i8*, ...) bitcast (i32 (...)* @gets to i32 (i8*, ...)*)(i8* %11)
  %13 = load i32, i32* %1, align 4
  %14 = sext i32 %13 to i64
  %15 = getelementptr inbounds [100 x [50 x i8]], [100 x [50 x i8]]* %5, i64 0, i64 %14
  %16 = getelementptr inbounds [50 x i8], [50 x i8]* %15, i64 0, i64 0
  %17 = call i64 @strlen(i8* %16) #3
  %18 = trunc i64 %17 to i32
  %19 = load i32, i32* %1, align 4
  %20 = sext i32 %19 to i64
  %21 = getelementptr inbounds [100 x i32], [100 x i32]* %4, i64 0, i64 %20
  store i32 %18, i32* %21, align 4
  %22 = load i32, i32* %1, align 4
  %23 = add nsw i32 %22, 1
  store i32 %23, i32* %1, align 4
  br label %24

24:                                               ; preds = %7
  %25 = load i32, i32* %1, align 4
  %26 = sub nsw i32 %25, 1
  %27 = sext i32 %26 to i64
  %28 = getelementptr inbounds [100 x [50 x i8]], [100 x [50 x i8]]* %5, i64 0, i64 %27
  %29 = getelementptr inbounds [50 x i8], [50 x i8]* %28, i64 0, i64 0
  %30 = load i8, i8* %29, align 2
  %31 = sext i8 %30 to i32
  %32 = icmp ne i32 %31, 0
  br i1 %32, label %7, label %33

33:                                               ; preds = %24
  store i32 0, i32* %1, align 4
  br label %34

34:                                               ; preds = %85, %33
  %35 = load i32, i32* %1, align 4
  %36 = sext i32 %35 to i64
  %37 = getelementptr inbounds [100 x [50 x i8]], [100 x [50 x i8]]* %5, i64 0, i64 %36
  %38 = getelementptr inbounds [50 x i8], [50 x i8]* %37, i64 0, i64 0
  %39 = load i8, i8* %38, align 2
  %40 = sext i8 %39 to i32
  %41 = icmp ne i32 %40, 0
  br i1 %41, label %42, label %88

42:                                               ; preds = %34
  %43 = load i32, i32* %1, align 4
  %44 = sext i32 %43 to i64
  %45 = getelementptr inbounds [100 x [50 x i8]], [100 x [50 x i8]]* %5, i64 0, i64 %44
  %46 = getelementptr inbounds [50 x i8], [50 x i8]* %45, i64 0, i64 0
  %47 = load i8, i8* %46, align 2
  store i8 %47, i8* %6, align 1
  store i32 0, i32* %3, align 4
  br label %48

48:                                               ; preds = %81, %42
  %49 = load i32, i32* %3, align 4
  %50 = load i32, i32* %1, align 4
  %51 = sext i32 %50 to i64
  %52 = getelementptr inbounds [100 x i32], [100 x i32]* %4, i64 0, i64 %51
  %53 = load i32, i32* %52, align 4
  %54 = sub nsw i32 %53, 4
  %55 = icmp slt i32 %49, %54
  br i1 %55, label %56, label %84

56:                                               ; preds = %48
  %57 = load i32, i32* %1, align 4
  %58 = sext i32 %57 to i64
  %59 = getelementptr inbounds [100 x [50 x i8]], [100 x [50 x i8]]* %5, i64 0, i64 %58
  %60 = load i32, i32* %3, align 4
  %61 = sext i32 %60 to i64
  %62 = getelementptr inbounds [50 x i8], [50 x i8]* %59, i64 0, i64 %61
  %63 = load i8, i8* %62, align 1
  %64 = sext i8 %63 to i32
  %65 = load i8, i8* %6, align 1
  %66 = sext i8 %65 to i32
  %67 = icmp sgt i32 %64, %66
  br i1 %67, label %68, label %80

68:                                               ; preds = %56
  %69 = load i32, i32* %1, align 4
  %70 = sext i32 %69 to i64
  %71 = getelementptr inbounds [100 x [50 x i8]], [100 x [50 x i8]]* %5, i64 0, i64 %70
  %72 = load i32, i32* %3, align 4
  %73 = sext i32 %72 to i64
  %74 = getelementptr inbounds [50 x i8], [50 x i8]* %71, i64 0, i64 %73
  %75 = load i8, i8* %74, align 1
  store i8 %75, i8* %6, align 1
  %76 = load i32, i32* %3, align 4
  %77 = load i32, i32* %1, align 4
  %78 = sext i32 %77 to i64
  %79 = getelementptr inbounds [100 x i32], [100 x i32]* %2, i64 0, i64 %78
  store i32 %76, i32* %79, align 4
  br label %80

80:                                               ; preds = %68, %56
  br label %81

81:                                               ; preds = %80
  %82 = load i32, i32* %3, align 4
  %83 = add nsw i32 %82, 1
  store i32 %83, i32* %3, align 4
  br label %48

84:                                               ; preds = %48
  br label %85

85:                                               ; preds = %84
  %86 = load i32, i32* %1, align 4
  %87 = add nsw i32 %86, 1
  store i32 %87, i32* %1, align 4
  br label %34

88:                                               ; preds = %34
  store i32 0, i32* %1, align 4
  br label %89

89:                                               ; preds = %173, %88
  %90 = load i32, i32* %1, align 4
  %91 = sext i32 %90 to i64
  %92 = getelementptr inbounds [100 x [50 x i8]], [100 x [50 x i8]]* %5, i64 0, i64 %91
  %93 = getelementptr inbounds [50 x i8], [50 x i8]* %92, i64 0, i64 0
  %94 = load i8, i8* %93, align 2
  %95 = sext i8 %94 to i32
  %96 = icmp ne i32 %95, 0
  br i1 %96, label %97, label %176

97:                                               ; preds = %89
  store i32 0, i32* %3, align 4
  br label %98

98:                                               ; preds = %115, %97
  %99 = load i32, i32* %3, align 4
  %100 = load i32, i32* %1, align 4
  %101 = sext i32 %100 to i64
  %102 = getelementptr inbounds [100 x i32], [100 x i32]* %2, i64 0, i64 %101
  %103 = load i32, i32* %102, align 4
  %104 = icmp sle i32 %99, %103
  br i1 %104, label %105, label %118

105:                                              ; preds = %98
  %106 = load i32, i32* %1, align 4
  %107 = sext i32 %106 to i64
  %108 = getelementptr inbounds [100 x [50 x i8]], [100 x [50 x i8]]* %5, i64 0, i64 %107
  %109 = load i32, i32* %3, align 4
  %110 = sext i32 %109 to i64
  %111 = getelementptr inbounds [50 x i8], [50 x i8]* %108, i64 0, i64 %110
  %112 = load i8, i8* %111, align 1
  %113 = sext i8 %112 to i32
  %114 = call i32 (i8*, ...) @printf(i8* getelementptr inbounds ([3 x i8], [3 x i8]* @.str, i64 0, i64 0), i32 %113)
  br label %115

115:                                              ; preds = %105
  %116 = load i32, i32* %3, align 4
  %117 = add nsw i32 %116, 1
  store i32 %117, i32* %3, align 4
  br label %98

118:                                              ; preds = %98
  %119 = load i32, i32* %1, align 4
  %120 = sext i32 %119 to i64
  %121 = getelementptr inbounds [100 x i32], [100 x i32]* %4, i64 0, i64 %120
  %122 = load i32, i32* %121, align 4
  %123 = sub nsw i32 %122, 3
  store i32 %123, i32* %3, align 4
  br label %124

124:                                              ; preds = %141, %118
  %125 = load i32, i32* %3, align 4
  %126 = load i32, i32* %1, align 4
  %127 = sext i32 %126 to i64
  %128 = getelementptr inbounds [100 x i32], [100 x i32]* %4, i64 0, i64 %127
  %129 = load i32, i32* %128, align 4
  %130 = icmp slt i32 %125, %129
  br i1 %130, label %131, label %144

131:                                              ; preds = %124
  %132 = load i32, i32* %1, align 4
  %133 = sext i32 %132 to i64
  %134 = getelementptr inbounds [100 x [50 x i8]], [100 x [50 x i8]]* %5, i64 0, i64 %133
  %135 = load i32, i32* %3, align 4
  %136 = sext i32 %135 to i64
  %137 = getelementptr inbounds [50 x i8], [50 x i8]* %134, i64 0, i64 %136
  %138 = load i8, i8* %137, align 1
  %139 = sext i8 %138 to i32
  %140 = call i32 (i8*, ...) @printf(i8* getelementptr inbounds ([3 x i8], [3 x i8]* @.str, i64 0, i64 0), i32 %139)
  br label %141

141:                                              ; preds = %131
  %142 = load i32, i32* %3, align 4
  %143 = add nsw i32 %142, 1
  store i32 %143, i32* %3, align 4
  br label %124

144:                                              ; preds = %124
  %145 = load i32, i32* %1, align 4
  %146 = sext i32 %145 to i64
  %147 = getelementptr inbounds [100 x i32], [100 x i32]* %2, i64 0, i64 %146
  %148 = load i32, i32* %147, align 4
  %149 = add nsw i32 %148, 1
  store i32 %149, i32* %3, align 4
  br label %150

150:                                              ; preds = %168, %144
  %151 = load i32, i32* %3, align 4
  %152 = load i32, i32* %1, align 4
  %153 = sext i32 %152 to i64
  %154 = getelementptr inbounds [100 x i32], [100 x i32]* %4, i64 0, i64 %153
  %155 = load i32, i32* %154, align 4
  %156 = sub nsw i32 %155, 4
  %157 = icmp slt i32 %151, %156
  br i1 %157, label %158, label %171

158:                                              ; preds = %150
  %159 = load i32, i32* %1, align 4
  %160 = sext i32 %159 to i64
  %161 = getelementptr inbounds [100 x [50 x i8]], [100 x [50 x i8]]* %5, i64 0, i64 %160
  %162 = load i32, i32* %3, align 4
  %163 = sext i32 %162 to i64
  %164 = getelementptr inbounds [50 x i8], [50 x i8]* %161, i64 0, i64 %163
  %165 = load i8, i8* %164, align 1
  %166 = sext i8 %165 to i32
  %167 = call i32 (i8*, ...) @printf(i8* getelementptr inbounds ([3 x i8], [3 x i8]* @.str, i64 0, i64 0), i32 %166)
  br label %168

168:                                              ; preds = %158
  %169 = load i32, i32* %3, align 4
  %170 = add nsw i32 %169, 1
  store i32 %170, i32* %3, align 4
  br label %150

171:                                              ; preds = %150
  %172 = call i32 (i8*, ...) @printf(i8* getelementptr inbounds ([2 x i8], [2 x i8]* @.str.1, i64 0, i64 0))
  br label %173

173:                                              ; preds = %171
  %174 = load i32, i32* %1, align 4
  %175 = add nsw i32 %174, 1
  store i32 %175, i32* %1, align 4
  br label %89

176:                                              ; preds = %89
  ret void
}

declare dso_local i32 @gets(...) #1

; Function Attrs: nounwind readonly
declare dso_local i64 @strlen(i8*) #2

declare dso_local i32 @printf(i8*, ...) #1


!llvm.module.flags = !{!0}
!llvm.ident = !{!1}

!0 = !{i32 1, !"wchar_size", i32 4}
!1 = !{!"clang version 10.0.0-4ubuntu1 "}
